; ModuleID = '7/729.c'
source_filename = "7/729.c"
target datalayout = "e-m:e-p270:32:32-p271:32:32-p272:64:64-i64:64-f80:128-n8:16:32:64-S128"
target triple = "x86_64-pc-linux-gnu"

@.str = private unnamed_addr constant [3 x i8] c"%s\00", align 1
@.str.1 = private unnamed_addr constant [7 x i8] c"%s%s%s\00", align 1
@.str.2 = private unnamed_addr constant [7 x i8] c"%s%c%s\00", align 1

; Function Attrs: noinline nounwind uwtable
define dso_local i32 @main() #0 {
  %1 = alloca i32, align 4
  %2 = alloca [100 x i8], align 16
  %3 = alloca [30 x i8], align 16
  %4 = alloca [30 x i8], align 16
  %5 = alloca [100 x i8], align 16
  %6 = alloca [100 x i8], align 16
  %7 = alloca i32, align 4
  %8 = alloca i32, align 4
  %9 = alloca i32, align 4
  %10 = alloca i32, align 4
  %11 = alloca i32, align 4
  store i32 0, i32* %1, align 4
  store i32 1, i32* %9, align 4
  store i32 1, i32* %11, align 4
  %12 = getelementptr inbounds [100 x i8], [100 x i8]* %2, i64 0, i64 0
  %13 = call i32 (i8*, ...) bitcast (i32 (...)* @gets to i32 (i8*, ...)*)(i8* %12)
  %14 = getelementptr inbounds [30 x i8], [30 x i8]* %3, i64 0, i64 0
  %15 = call i32 (i8*, ...) @__isoc99_scanf(i8* getelementptr inbounds ([3 x i8], [3 x i8]* @.str, i64 0, i64 0), i8* %14)
  %16 = getelementptr inbounds [30 x i8], [30 x i8]* %4, i64 0, i64 0
  %17 = call i32 (i8*, ...) @__isoc99_scanf(i8* getelementptr inbounds ([3 x i8], [3 x i8]* @.str, i64 0, i64 0), i8* %16)
  %18 = getelementptr inbounds [30 x i8], [30 x i8]* %3, i64 0, i64 0
  %19 = call i64 @strlen(i8* %18) #4
  %20 = trunc i64 %19 to i32
  store i32 %20, i32* %7, align 4
  %21 = getelementptr inbounds [100 x i8], [100 x i8]* %2, i64 0, i64 0
  %22 = call i64 @strlen(i8* %21) #4
  %23 = trunc i64 %22 to i32
  store i32 %23, i32* %10, align 4
  store i32 0, i32* %8, align 4
  br label %24

24:                                               ; preds = %97, %0
  %25 = load i32, i32* %8, align 4
  %26 = load i32, i32* %10, align 4
  %27 = load i32, i32* %7, align 4
  %28 = sub nsw i32 %26, %27
  %29 = icmp sle i32 %25, %28
  br i1 %29, label %30, label %100

30:                                               ; preds = %24
  %31 = getelementptr inbounds [100 x i8], [100 x i8]* %5, i64 0, i64 0
  %32 = getelementptr inbounds [100 x i8], [100 x i8]* %2, i64 0, i64 0
  %33 = call i8* @strcpy(i8* %31, i8* %32) #5
  %34 = load i32, i32* %8, align 4
  %35 = load i32, i32* %7, align 4
  %36 = add nsw i32 %34, %35
  %37 = sext i32 %36 to i64
  %38 = getelementptr inbounds [100 x i8], [100 x i8]* %5, i64 0, i64 %37
  store i8 0, i8* %38, align 1
  %39 = load i32, i32* %8, align 4
  %40 = icmp ne i32 %39, 0
  br i1 %40, label %41, label %46

41:                                               ; preds = %30
  %42 = load i32, i32* %8, align 4
  %43 = sub nsw i32 %42, 1
  %44 = sext i32 %43 to i64
  %45 = getelementptr inbounds [100 x i8], [100 x i8]* %5, i64 0, i64 %44
  store i8 0, i8* %45, align 1
  br label %46

46:                                               ; preds = %41, %30
  %47 = load i32, i32* %8, align 4
  %48 = sext i32 %47 to i64
  %49 = getelementptr inbounds [100 x i8], [100 x i8]* %5, i64 0, i64 %48
  %50 = getelementptr inbounds [30 x i8], [30 x i8]* %3, i64 0, i64 0
  %51 = call i32 @strcmp(i8* %49, i8* %50) #4
  %52 = icmp eq i32 %51, 0
  br i1 %52, label %53, label %96

53:                                               ; preds = %46
  %54 = load i32, i32* %8, align 4
  %55 = icmp ne i32 %54, 0
  br i1 %55, label %56, label %80

56:                                               ; preds = %53
  %57 = getelementptr inbounds [100 x i8], [100 x i8]* %6, i64 0, i64 0
  %58 = getelementptr inbounds [100 x i8], [100 x i8]* %2, i64 0, i64 0
  %59 = call i8* @strcpy(i8* %57, i8* %58) #5
  %60 = load i32, i32* %8, align 4
  %61 = sext i32 %60 to i64
  %62 = getelementptr inbounds [100 x i8], [100 x i8]* %6, i64 0, i64 %61
  store i8 0, i8* %62, align 1
  %63 = load i32, i32* %8, align 4
  %64 = load i32, i32* %7, align 4
  %65 = add nsw i32 %63, %64
  %66 = sub nsw i32 %65, 1
  %67 = sext i32 %66 to i64
  %68 = getelementptr inbounds [100 x i8], [100 x i8]* %6, i64 0, i64 %67
  store i8 0, i8* %68, align 1
  %69 = load i32, i32* %10, align 4
  %70 = sext i32 %69 to i64
  %71 = getelementptr inbounds [100 x i8], [100 x i8]* %6, i64 0, i64 %70
  store i8 0, i8* %71, align 1
  %72 = getelementptr inbounds [100 x i8], [100 x i8]* %6, i64 0, i64 0
  %73 = getelementptr inbounds [30 x i8], [30 x i8]* %4, i64 0, i64 0
  %74 = load i32, i32* %8, align 4
  %75 = load i32, i32* %7, align 4
  %76 = add nsw i32 %74, %75
  %77 = sext i32 %76 to i64
  %78 = getelementptr inbounds [100 x i8], [100 x i8]* %6, i64 0, i64 %77
  %79 = call i32 (i8*, ...) @printf(i8* getelementptr inbounds ([7 x i8], [7 x i8]* @.str.1, i64 0, i64 0), i8* %72, i8* %73, i8* %78)
  store i32 0, i32* %11, align 4
  br label %100

80:                                               ; preds = %53
  %81 = getelementptr inbounds [30 x i8], [30 x i8]* %4, i64 0, i64 0
  %82 = load i32, i32* %8, align 4
  %83 = load i32, i32* %7, align 4
  %84 = add nsw i32 %82, %83
  %85 = sext i32 %84 to i64
  %86 = getelementptr inbounds [100 x i8], [100 x i8]* %2, i64 0, i64 %85
  %87 = load i8, i8* %86, align 1
  %88 = sext i8 %87 to i32
  %89 = load i32, i32* %8, align 4
  %90 = load i32, i32* %7, align 4
  %91 = add nsw i32 %89, %90
  %92 = add nsw i32 %91, 1
  %93 = sext i32 %92 to i64
  %94 = getelementptr inbounds [100 x i8], [100 x i8]* %5, i64 0, i64 %93
  %95 = call i32 (i8*, ...) @printf(i8* getelementptr inbounds ([7 x i8], [7 x i8]* @.str.2, i64 0, i64 0), i8* %81, i32 %88, i8* %94)
  store i32 0, i32* %11, align 4
  br label %100

96:                                               ; preds = %46
  br label %97

97:                                               ; preds = %96
  %98 = load i32, i32* %8, align 4
  %99 = add nsw i32 %98, 1
  store i32 %99, i32* %8, align 4
  br label %24

100:                                              ; preds = %80, %56, %24
  %101 = load i32, i32* %11, align 4
  %102 = icmp ne i32 %101, 0
  br i1 %102, label %103, label %106

103:                                              ; preds = %100
  %104 = getelementptr inbounds [100 x i8], [100 x i8]* %2, i64 0, i64 0
  %105 = call i32 (i8*, ...) @printf(i8* getelementptr inbounds ([3 x i8], [3 x i8]* @.str, i64 0, i64 0), i8* %104)
  br label %106

106:                                              ; preds = %103, %100
  ret i32 0
}

declare dso_local i32 @gets(...) #1

declare dso_local i32 @__isoc99_scanf(i8*, ...) #1

; Function Attrs: nounwind readonly
declare dso_local i64 @strlen(i8*) #2

; Function Attrs: nounwind
declare dso_local i8* @strcpy(i8*, i8*) #3

; Function Attrs: nounwind readonly
declare dso_local i32 @strcmp(i8*, i8*) #2

declare dso_local i32 @printf(i8*, ...) #1


!llvm.module.flags = !{!0}
!llvm.ident = !{!1}

!0 = !{i32 1, !"wchar_size", i32 4}
!1 = !{!"clang version 10.0.0-4ubuntu1 "}
