; ModuleID = 'source-C-CXX/6/729.c'
source_filename = "source-C-CXX/6/729.c"
target datalayout = "e-m:e-p270:32:32-p271:32:32-p272:64:64-i64:64-f80:128-n8:16:32:64-S128"
target triple = "x86_64-pc-linux-gnu"

@.str = private unnamed_addr constant [3 x i8] c"%s\00", align 1
@.str.1 = private unnamed_addr constant [7 x i8] c"%s%s%s\00", align 1
@.str.2 = private unnamed_addr constant [7 x i8] c"%s%c%s\00", align 1

; Function Attrs: nounwind sspstrong uwtable
define dso_local i32 @main() local_unnamed_addr #0 {
  %1 = alloca [100 x i8], align 16
  %2 = alloca [30 x i8], align 16
  %3 = alloca [30 x i8], align 16
  %4 = alloca [100 x i8], align 16
  %5 = alloca [100 x i8], align 16
  %6 = getelementptr inbounds [100 x i8], [100 x i8]* %1, i64 0, i64 0
  call void @llvm.lifetime.start.p0i8(i64 100, i8* nonnull %6) #6
  %7 = getelementptr inbounds [30 x i8], [30 x i8]* %2, i64 0, i64 0
  call void @llvm.lifetime.start.p0i8(i64 30, i8* nonnull %7) #6
  %8 = getelementptr inbounds [30 x i8], [30 x i8]* %3, i64 0, i64 0
  call void @llvm.lifetime.start.p0i8(i64 30, i8* nonnull %8) #6
  %9 = getelementptr inbounds [100 x i8], [100 x i8]* %4, i64 0, i64 0
  call void @llvm.lifetime.start.p0i8(i64 100, i8* nonnull %9) #6
  %10 = getelementptr inbounds [100 x i8], [100 x i8]* %5, i64 0, i64 0
  call void @llvm.lifetime.start.p0i8(i64 100, i8* nonnull %10) #6
  %11 = call i32 (i8*, ...) bitcast (i32 (...)* @gets to i32 (i8*, ...)*)(i8* nonnull %6) #6
  %12 = call i32 (i8*, ...) @__isoc99_scanf(i8* getelementptr inbounds ([3 x i8], [3 x i8]* @.str, i64 0, i64 0), i8* nonnull %7)
  %13 = call i32 (i8*, ...) @__isoc99_scanf(i8* getelementptr inbounds ([3 x i8], [3 x i8]* @.str, i64 0, i64 0), i8* nonnull %8)
  %14 = call i64 @strlen(i8* noundef nonnull %7) #7
  %15 = trunc i64 %14 to i32
  %16 = call i64 @strlen(i8* noundef nonnull %6) #7
  %17 = trunc i64 %16 to i32
  %18 = icmp slt i32 %17, %15
  br i1 %18, label %66, label %19

19:                                               ; preds = %0
  %20 = shl i64 %14, 32
  %21 = ashr exact i64 %20, 32
  %22 = add i64 %16, 1
  %23 = sub i64 %22, %14
  %24 = and i64 %23, 4294967295
  br label %25

25:                                               ; preds = %19, %63
  %26 = phi i64 [ 0, %19 ], [ %64, %63 ]
  %27 = call i8* @strcpy(i8* noundef nonnull %9, i8* noundef nonnull %6) #6
  %28 = add nsw i64 %26, %21
  %29 = getelementptr inbounds [100 x i8], [100 x i8]* %4, i64 0, i64 %28
  store i8 0, i8* %29, align 1, !tbaa !5
  %30 = icmp eq i64 %26, 0
  br i1 %30, label %31, label %35

31:                                               ; preds = %25
  %32 = getelementptr inbounds [100 x i8], [100 x i8]* %4, i64 0, i64 %26
  %33 = call i32 @strcmp(i8* noundef nonnull %32, i8* noundef nonnull %7) #7
  %34 = icmp eq i32 %33, 0
  br i1 %34, label %54, label %63

35:                                               ; preds = %25
  %36 = add nsw i64 %26, -1
  %37 = getelementptr inbounds [100 x i8], [100 x i8]* %4, i64 0, i64 %36
  store i8 0, i8* %37, align 1, !tbaa !5
  %38 = getelementptr inbounds [100 x i8], [100 x i8]* %4, i64 0, i64 %26
  %39 = call i32 @strcmp(i8* noundef nonnull %38, i8* noundef nonnull %7) #7
  %40 = icmp eq i32 %39, 0
  br i1 %40, label %41, label %63

41:                                               ; preds = %35
  %42 = and i64 %26, 4294967295
  %43 = call i8* @strcpy(i8* noundef nonnull %10, i8* noundef nonnull %6) #6
  %44 = getelementptr inbounds [100 x i8], [100 x i8]* %5, i64 0, i64 %42
  store i8 0, i8* %44, align 1, !tbaa !5
  %45 = shl i64 %28, 32
  %46 = add i64 %45, -4294967296
  %47 = ashr exact i64 %46, 32
  %48 = getelementptr inbounds [100 x i8], [100 x i8]* %5, i64 0, i64 %47
  store i8 0, i8* %48, align 1, !tbaa !5
  %49 = shl i64 %16, 32
  %50 = ashr exact i64 %49, 32
  %51 = getelementptr inbounds [100 x i8], [100 x i8]* %5, i64 0, i64 %50
  store i8 0, i8* %51, align 1, !tbaa !5
  %52 = getelementptr inbounds [100 x i8], [100 x i8]* %5, i64 0, i64 %28
  %53 = call i32 (i8*, ...) @printf(i8* nonnull dereferenceable(1) getelementptr inbounds ([7 x i8], [7 x i8]* @.str.1, i64 0, i64 0), i8* nonnull %10, i8* nonnull %8, i8* nonnull %52)
  br label %68

54:                                               ; preds = %31
  %55 = getelementptr inbounds [100 x i8], [100 x i8]* %1, i64 0, i64 %28
  %56 = load i8, i8* %55, align 1, !tbaa !5
  %57 = sext i8 %56 to i32
  %58 = shl i64 %28, 32
  %59 = add i64 %58, 4294967296
  %60 = ashr exact i64 %59, 32
  %61 = getelementptr inbounds [100 x i8], [100 x i8]* %4, i64 0, i64 %60
  %62 = call i32 (i8*, ...) @printf(i8* nonnull dereferenceable(1) getelementptr inbounds ([7 x i8], [7 x i8]* @.str.2, i64 0, i64 0), i8* nonnull %8, i32 %57, i8* nonnull %61)
  br label %68

63:                                               ; preds = %35, %31
  %64 = add nuw nsw i64 %26, 1
  %65 = icmp eq i64 %64, %24
  br i1 %65, label %66, label %25, !llvm.loop !8

66:                                               ; preds = %63, %0
  %67 = call i32 (i8*, ...) @printf(i8* nonnull dereferenceable(1) getelementptr inbounds ([3 x i8], [3 x i8]* @.str, i64 0, i64 0), i8* nonnull %6)
  br label %68

68:                                               ; preds = %41, %54, %66
  call void @llvm.lifetime.end.p0i8(i64 100, i8* nonnull %10) #6
  call void @llvm.lifetime.end.p0i8(i64 100, i8* nonnull %9) #6
  call void @llvm.lifetime.end.p0i8(i64 30, i8* nonnull %8) #6
  call void @llvm.lifetime.end.p0i8(i64 30, i8* nonnull %7) #6
  call void @llvm.lifetime.end.p0i8(i64 100, i8* nonnull %6) #6
  ret i32 0
}

; Function Attrs: argmemonly mustprogress nofree nosync nounwind willreturn
declare void @llvm.lifetime.start.p0i8(i64 immarg, i8* nocapture) #1

declare i32 @gets(...) local_unnamed_addr #2

; Function Attrs: nofree nounwind
declare noundef i32 @__isoc99_scanf(i8* nocapture noundef readonly, ...) local_unnamed_addr #3

; Function Attrs: argmemonly mustprogress nofree nounwind readonly willreturn
declare i64 @strlen(i8* nocapture) local_unnamed_addr #4

; Function Attrs: argmemonly mustprogress nofree nounwind willreturn
declare i8* @strcpy(i8* noalias returned writeonly, i8* noalias nocapture readonly) local_unnamed_addr #5

; Function Attrs: argmemonly mustprogress nofree nounwind readonly willreturn
declare i32 @strcmp(i8* nocapture, i8* nocapture) local_unnamed_addr #4

; Function Attrs: nofree nounwind
declare noundef i32 @printf(i8* nocapture noundef readonly, ...) local_unnamed_addr #3

; Function Attrs: argmemonly mustprogress nofree nosync nounwind willreturn
declare void @llvm.lifetime.end.p0i8(i64 immarg, i8* nocapture) #1


!llvm.module.flags = !{!0, !1, !2, !3}
!llvm.ident = !{!4}

!0 = !{i32 1, !"wchar_size", i32 4}
!1 = !{i32 7, !"PIC Level", i32 2}
!2 = !{i32 7, !"PIE Level", i32 2}
!3 = !{i32 7, !"uwtable", i32 1}
!4 = !{!"clang version 13.0.0"}
!5 = !{!6, !6, i64 0}
!6 = !{!"omnipotent char", !7, i64 0}
!7 = !{!"Simple C/C++ TBAA"}
!8 = distinct !{!8, !9}
!9 = !{!"llvm.loop.mustprogress"}
